target datalayout = "e-m:e-p270:32:32-p271:32:32-p272:64:64-i64:64-i128:128-f80:128-n8:16:32:64-S128"
target triple = "x86_64-pc-linux-gnu"

%"class.cv::videostab::IFrameSource" = type { ptr }
%"class.std::__shared_count" = type { ptr }
%"class.cv::videostab::(anonymous namespace)::VideoFileSourceImpl" = type { %"class.cv::videostab::IFrameSource", %"class.std::__cxx11::basic_string", i8, [7 x i8], %"class.cv::VideoCapture" }
%"class.std::__cxx11::basic_string" = type { %"struct.std::__cxx11::basic_string<char>::_Alloc_hider", i64, %union.anon }
%"struct.std::__cxx11::basic_string<char>::_Alloc_hider" = type { ptr }
%union.anon = type { i64, [8 x i8] }
%"class.cv::VideoCapture" = type <{ ptr, %"struct.cv::Ptr.0", %"struct.cv::Ptr.4", i8, [7 x i8] }>
%"struct.cv::Ptr.0" = type { %"class.std::shared_ptr.1" }
%"class.std::shared_ptr.1" = type { %"class.std::__shared_ptr.2" }
%"class.std::__shared_ptr.2" = type { ptr, %"class.std::__shared_count" }
%"struct.cv::Ptr.4" = type { %"class.std::shared_ptr.5" }
%"class.std::shared_ptr.5" = type { %"class.std::__shared_ptr.6" }
%"class.std::__shared_ptr.6" = type { ptr, %"class.std::__shared_count" }

@.str = private unnamed_addr constant [18 x i8] c"can't open file: \00", align 1
@__func__._ZN2cv9videostab12_GLOBAL__N_119VideoFileSourceImpl5resetEv = private unnamed_addr constant [6 x i8] c"reset\00", align 1
@.str.1 = private unnamed_addr constant [146 x i8] c"generated/home/dtcxzyw/WorkSpace/Projects/compilers/llvm-opt-benchmark/bench/opencv/contrib/opencv_contrib/modules/videostab/src/frame_source.cpp\00", align 1

; Function Attrs: mustprogress uwtable
define internal void @_ZN2cv9videostab12_GLOBAL__N_119VideoFileSourceImpl5resetEv(ptr noundef nonnull align 8 dereferenceable(96) %0) unnamed_addr #4 align 2 personality ptr @__gxx_personality_v0 {
  %2 = alloca ptr, align 8
  %3 = alloca %"class.std::__cxx11::basic_string", align 8
  %4 = alloca ptr, align 8
  %5 = alloca i32, align 4
  store ptr %0, ptr %2, align 8
  %6 = load ptr, ptr %2, align 8
  %7 = getelementptr inbounds %"class.cv::videostab::(anonymous namespace)::VideoFileSourceImpl", ptr %6, i32 0, i32 4
  call void @_ZN2cv12VideoCapture7releaseEv(ptr noundef nonnull align 8 dereferenceable(41) %7)
  %8 = getelementptr inbounds %"class.cv::videostab::(anonymous namespace)::VideoFileSourceImpl", ptr %6, i32 0, i32 4
  %9 = getelementptr inbounds %"class.cv::videostab::(anonymous namespace)::VideoFileSourceImpl", ptr %6, i32 0, i32 1
  %10 = call noundef zeroext i1 @_ZN2cv12VideoCapture4openERKNSt7__cxx1112basic_stringIcSt11char_traitsIcESaIcEEEi(ptr noundef nonnull align 8 dereferenceable(41) %8, ptr noundef nonnull align 8 dereferenceable(32) %9, i32 noundef 0)
  %11 = getelementptr inbounds %"class.cv::videostab::(anonymous namespace)::VideoFileSourceImpl", ptr %6, i32 0, i32 4
  %12 = call noundef zeroext i1 @_ZNK2cv12VideoCapture8isOpenedEv(ptr noundef nonnull align 8 dereferenceable(41) %11)
  br i1 %12, label %20, label %13

13:                                               ; preds = %1
  %14 = getelementptr inbounds %"class.cv::videostab::(anonymous namespace)::VideoFileSourceImpl", ptr %6, i32 0, i32 1
  call void @_ZStplIcSt11char_traitsIcESaIcEENSt7__cxx1112basic_stringIT_T0_T1_EEPKS5_RKS8_(ptr dead_on_unwind writable sret(%"class.std::__cxx11::basic_string") align 8 %3, ptr noundef @.str, ptr noundef nonnull align 8 dereferenceable(32) %14)
  invoke void @_ZN2cv5errorEiRKNSt7__cxx1112basic_stringIcSt11char_traitsIcESaIcEEEPKcS9_i(i32 noundef 0, ptr noundef nonnull align 8 dereferenceable(32) %3, ptr noundef @__func__._ZN2cv9videostab12_GLOBAL__N_119VideoFileSourceImpl5resetEv, ptr noundef @.str.1, i32 noundef 71) #14
          to label %15 unwind label %16

15:                                               ; preds = %13
  unreachable

16:                                               ; preds = %13
  %17 = landingpad { ptr, i32 }
          cleanup
  %18 = extractvalue { ptr, i32 } %17, 0
  store ptr %18, ptr %4, align 8
  %19 = extractvalue { ptr, i32 } %17, 1
  store i32 %19, ptr %5, align 4
  call void @_ZNSt7__cxx1112basic_stringIcSt11char_traitsIcESaIcEED1Ev(ptr noundef nonnull align 8 dereferenceable(32) %3) #3
  br label %21

20:                                               ; preds = %1
  ret void

21:                                               ; preds = %16
  %22 = load ptr, ptr %4, align 8
  %23 = load i32, ptr %5, align 4
  %24 = insertvalue { ptr, i32 } poison, ptr %22, 0
  %25 = insertvalue { ptr, i32 } %24, i32 %23, 1
  resume { ptr, i32 } %25
}