; Function Attrs: mustprogress uwtable
define internal void @_ZN2cv9videostab12_GLOBAL__N_119VideoFileSourceImpl5resetEv(ptr noundef nonnull align 8 dereferenceable(96) %0) unnamed_addr #3 align 2 personality ptr @__gxx_personality_v0 {
  %2 = alloca %"class.std::__cxx11::basic_string", align 8
  %3 = getelementptr inbounds i8, ptr %0, i64 48
  tail call void @_ZN2cv12VideoCapture7releaseEv(ptr noundef nonnull align 8 dereferenceable(41) %3)
  %4 = getelementptr inbounds i8, ptr %0, i64 8
  %5 = tail call noundef zeroext i1 @_ZN2cv12VideoCapture4openERKNSt7__cxx1112basic_stringIcSt11char_traitsIcESaIcEEEi(ptr noundef nonnull align 8 dereferenceable(41) %3, ptr noundef nonnull align 8 dereferenceable(32) %4, i32 noundef 0)
  %6 = tail call noundef zeroext i1 @_ZNK2cv12VideoCapture8isOpenedEv(ptr noundef nonnull align 8 dereferenceable(41) %3)
  br i1 %6, label %11, label %7

7:                                                ; preds = %1
  call void @_ZStplIcSt11char_traitsIcESaIcEENSt7__cxx1112basic_stringIT_T0_T1_EEPKS5_RKS8_(ptr dead_on_unwind nonnull writable sret(%"class.std::__cxx11::basic_string") align 8 %2, ptr noundef nonnull @.str, ptr noundef nonnull align 8 dereferenceable(32) %4)
  invoke void @_ZN2cv5errorEiRKNSt7__cxx1112basic_stringIcSt11char_traitsIcESaIcEEEPKcS9_i(i32 noundef 0, ptr noundef nonnull align 8 dereferenceable(32) %2, ptr noundef nonnull @__func__._ZN2cv9videostab12_GLOBAL__N_119VideoFileSourceImpl5resetEv, ptr noundef nonnull @.str.1, i32 noundef 71) #14
          to label %8 unwind label %9

8:                                                ; preds = %7
  unreachable

9:                                                ; preds = %7
  %10 = landingpad { ptr, i32 }
          cleanup
  call void @_ZNSt7__cxx1112basic_stringIcSt11char_traitsIcESaIcEED1Ev(ptr noundef nonnull align 8 dereferenceable(32) %2) #13
  resume { ptr, i32 } %10

11:                                               ; preds = %1
  ret void
}